target datalayout = "e-m:e-p270:32:32-p271:32:32-p272:64:64-i64:64-i128:128-f80:128-n8:16:32:64-S128"
target triple = "x86_64-pc-linux-gnu"

%struct.ForEachState = type { ptr, i32 }
%struct.PlannerInfo = type { i32, ptr, ptr, i32, ptr, ptr, ptr, ptr, i32, ptr, ptr, ptr, ptr, ptr, ptr, ptr, ptr, i32, ptr, ptr, ptr, ptr, ptr, i8, ptr, ptr, ptr, ptr, ptr, i32, ptr, ptr, ptr, ptr, ptr, ptr, ptr, i32, ptr, ptr, ptr, i32, ptr, ptr, ptr, ptr, ptr, ptr, [8 x ptr], [8 x ptr], ptr, ptr, ptr, ptr, ptr, ptr, ptr, double, double, double, i32, i8, i8, i8, i8, i8, i8, i8, i32, ptr, ptr, i32, i8, i8, i32, ptr, ptr, ptr, ptr, ptr, ptr, i8, ptr }
%struct.List = type { i32, i32, i32, ptr, [0 x %union.ListCell] }
%union.ListCell = type { ptr }
%struct.PlaceHolderInfo = type { i32, i32, ptr, ptr, ptr, ptr, i32 }

; Function Attrs: nounwind uwtable
define dso_local zeroext i1 @have_dangerous_phv(ptr noundef %0, ptr noundef %1, ptr noundef %2) #0 {
  %4 = alloca i1, align 1
  %5 = alloca ptr, align 8
  %6 = alloca ptr, align 8
  %7 = alloca ptr, align 8
  %8 = alloca ptr, align 8
  %9 = alloca %struct.ForEachState, align 8
  %10 = alloca i32, align 4
  %11 = alloca ptr, align 8
  store ptr %0, ptr %5, align 8
  store ptr %1, ptr %6, align 8
  store ptr %2, ptr %7, align 8
  call void @llvm.lifetime.start.p0(i64 8, ptr %8) #7
  call void @llvm.lifetime.start.p0(i64 16, ptr %9) #7
  %12 = getelementptr inbounds nuw %struct.ForEachState, ptr %9, i32 0, i32 0
  %13 = load ptr, ptr %5, align 8
  %14 = getelementptr inbounds nuw %struct.PlannerInfo, ptr %13, i32 0, i32 35
  %15 = load ptr, ptr %14, align 8
  store ptr %15, ptr %12, align 8
  %16 = getelementptr inbounds nuw %struct.ForEachState, ptr %9, i32 0, i32 1
  store i32 0, ptr %16, align 8
  %17 = getelementptr i8, ptr %9, i64 12
  call void @llvm.memset.p0.i64(ptr align 4 %17, i8 0, i64 4, i1 false)
  br label %18

18:                                               ; preds = %70, %3
  %19 = getelementptr inbounds nuw %struct.ForEachState, ptr %9, i32 0, i32 0
  %20 = load ptr, ptr %19, align 8
  %21 = icmp ne ptr %20, null
  br i1 %21, label %22, label %39

22:                                               ; preds = %18
  %23 = getelementptr inbounds nuw %struct.ForEachState, ptr %9, i32 0, i32 1
  %24 = load i32, ptr %23, align 8
  %25 = getelementptr inbounds nuw %struct.ForEachState, ptr %9, i32 0, i32 0
  %26 = load ptr, ptr %25, align 8
  %27 = getelementptr inbounds nuw %struct.List, ptr %26, i32 0, i32 1
  %28 = load i32, ptr %27, align 4
  %29 = icmp slt i32 %24, %28
  br i1 %29, label %30, label %39

30:                                               ; preds = %22
  %31 = getelementptr inbounds nuw %struct.ForEachState, ptr %9, i32 0, i32 0
  %32 = load ptr, ptr %31, align 8
  %33 = getelementptr inbounds nuw %struct.List, ptr %32, i32 0, i32 3
  %34 = load ptr, ptr %33, align 8
  %35 = getelementptr inbounds nuw %struct.ForEachState, ptr %9, i32 0, i32 1
  %36 = load i32, ptr %35, align 8
  %37 = sext i32 %36 to i64
  %38 = getelementptr inbounds %union.ListCell, ptr %34, i64 %37
  store ptr %38, ptr %8, align 8
  br label %40

39:                                               ; preds = %22, %18
  store ptr null, ptr %8, align 8
  br label %40

40:                                               ; preds = %39, %30
  %41 = phi i32 [ 1, %30 ], [ 0, %39 ]
  %42 = icmp ne i32 %41, 0
  br i1 %42, label %44, label %43

43:                                               ; preds = %40
  store i32 2, ptr %10, align 4
  br label %74

44:                                               ; preds = %40
  call void @llvm.lifetime.start.p0(i64 8, ptr %11) #7
  %45 = load ptr, ptr %8, align 8
  %46 = load ptr, ptr %45, align 8
  store ptr %46, ptr %11, align 8
  %47 = load ptr, ptr %11, align 8
  %48 = getelementptr inbounds nuw %struct.PlaceHolderInfo, ptr %47, i32 0, i32 3
  %49 = load ptr, ptr %48, align 8
  %50 = load ptr, ptr %7, align 8
  %51 = call zeroext i1 @bms_is_subset(ptr noundef %49, ptr noundef %50)
  br i1 %51, label %53, label %52

52:                                               ; preds = %44
  store i32 4, ptr %10, align 4
  br label %68

53:                                               ; preds = %44
  %54 = load ptr, ptr %11, align 8
  %55 = getelementptr inbounds nuw %struct.PlaceHolderInfo, ptr %54, i32 0, i32 3
  %56 = load ptr, ptr %55, align 8
  %57 = load ptr, ptr %6, align 8
  %58 = call zeroext i1 @bms_overlap(ptr noundef %56, ptr noundef %57)
  br i1 %58, label %60, label %59

59:                                               ; preds = %53
  store i32 4, ptr %10, align 4
  br label %68

60:                                               ; preds = %53
  %61 = load ptr, ptr %11, align 8
  %62 = getelementptr inbounds nuw %struct.PlaceHolderInfo, ptr %61, i32 0, i32 3
  %63 = load ptr, ptr %62, align 8
  %64 = load ptr, ptr %6, align 8
  %65 = call zeroext i1 @bms_is_subset(ptr noundef %63, ptr noundef %64)
  br i1 %65, label %66, label %67

66:                                               ; preds = %60
  store i32 4, ptr %10, align 4
  br label %68

67:                                               ; preds = %60
  store i1 true, ptr %4, align 1
  store i32 1, ptr %10, align 4
  br label %68

68:                                               ; preds = %67, %66, %59, %52
  call void @llvm.lifetime.end.p0(i64 8, ptr %11) #7
  %69 = load i32, ptr %10, align 4
  switch i32 %69, label %74 [
    i32 4, label %70
  ]

70:                                               ; preds = %68
  %71 = getelementptr inbounds nuw %struct.ForEachState, ptr %9, i32 0, i32 1
  %72 = load i32, ptr %71, align 8
  %73 = add i32 %72, 1
  store i32 %73, ptr %71, align 8
  br label %18, !llvm.loop !22

74:                                               ; preds = %68, %43
  call void @llvm.lifetime.end.p0(i64 16, ptr %9) #7
  %75 = load i32, ptr %10, align 4
  switch i32 %75, label %77 [
    i32 2, label %76
  ]

76:                                               ; preds = %74
  store i1 false, ptr %4, align 1
  store i32 1, ptr %10, align 4
  br label %77

77:                                               ; preds = %76, %74
  call void @llvm.lifetime.end.p0(i64 8, ptr %8) #7
  %78 = load i1, ptr %4, align 1
  ret i1 %78
}