; Function Attrs: nounwind uwtable
define dso_local noundef zeroext i1 @have_dangerous_phv(ptr noundef readonly captures(none) %0, ptr noundef %1, ptr noundef %2) local_unnamed_addr #0 {
  %4 = getelementptr inbounds nuw i8, ptr %0, i64 280
  %5 = load ptr, ptr %4, align 8
  %6 = getelementptr inbounds nuw i8, ptr %5, i64 4
  %.not = icmp eq ptr %5, null
  br i1 %.not, label %.critedge21, label %.lr.ph

.lr.ph:                                           ; preds = %3
  %7 = getelementptr inbounds nuw i8, ptr %5, i64 16
  %8 = load i32, ptr %6, align 4
  %9 = icmp sgt i32 %8, 0
  br i1 %9, label %.lr.ph33, label %.critedge21

.lr.ph33:                                         ; preds = %.lr.ph, %.critedge
  %indvars.iv = phi i64 [ %indvars.iv.next, %.critedge ], [ 0, %.lr.ph ]
  %10 = load ptr, ptr %7, align 8
  %11 = getelementptr inbounds nuw %union.ListCell, ptr %10, i64 %indvars.iv
  %12 = load ptr, ptr %11, align 8
  %13 = getelementptr inbounds nuw i8, ptr %12, i64 16
  %14 = load ptr, ptr %13, align 8
  %15 = tail call zeroext i1 @bms_is_subset(ptr noundef %14, ptr noundef %2) #9
  br i1 %15, label %16, label %.critedge

16:                                               ; preds = %.lr.ph33
  %17 = load ptr, ptr %13, align 8
  %18 = tail call zeroext i1 @bms_overlap(ptr noundef %17, ptr noundef %1) #9
  br i1 %18, label %19, label %.critedge

19:                                               ; preds = %16
  %20 = load ptr, ptr %13, align 8
  %21 = tail call zeroext i1 @bms_is_subset(ptr noundef %20, ptr noundef %1) #9
  br i1 %21, label %.critedge, label %.critedge21

.critedge:                                        ; preds = %.lr.ph33, %16, %19
  %indvars.iv.next = add nuw nsw i64 %indvars.iv, 1
  %22 = load i32, ptr %6, align 4
  %23 = sext i32 %22 to i64
  %24 = icmp slt i64 %indvars.iv.next, %23
  br i1 %24, label %.lr.ph33, label %.critedge21

.critedge21:                                      ; preds = %19, %.critedge, %.lr.ph, %3
  %.3 = phi i1 [ false, %3 ], [ false, %.lr.ph ], [ false, %.critedge ], [ true, %19 ]
  ret i1 %.3
}